; Function Attrs: mustprogress nofree norecurse nosync nounwind willreturn memory(argmem: write) uwtable
define internal range(i32 -1, 20) i32 @notation3(ptr noundef writeonly captures(none) %0, i32 noundef %1, ptr readnone captures(none) %2, ptr readnone captures(none) %3, ptr readnone captures(none) %4) #0 {
  switch i32 %1, label %8 [
    i32 15, label %9
    i32 27, label %6
  ]

6:                                                ; preds = %5
  store ptr @declClose, ptr %0, align 8, !tbaa !4
  %7 = getelementptr inbounds nuw i8, ptr %0, i64 12
  store i32 17, ptr %7, align 4, !tbaa !13
  br label %9

8:                                                ; preds = %5
  store ptr @error, ptr %0, align 8, !tbaa !4
  br label %9

9:                                                ; preds = %5, %8, %6
  %.0 = phi i32 [ -1, %8 ], [ 19, %6 ], [ 17, %5 ]
  ret i32 %.0
}